; Function Attrs: nounwind uwtable
define ptr @l___private_Lean_Data_Lsp_LanguageFeatures_0__Lean_Lsp_toJsonSemanticTokenModifier____x40_Lean_Data_Lsp_LanguageFeatures___hyg_9298____boxed(ptr noundef %0) #0 {
  %2 = ptrtoint ptr %0 to i64
  %3 = lshr i64 %2, 1
  %4 = trunc i64 %3 to i8
  %5 = and i64 %2, 1
  %.not = icmp eq i64 %5, 0
  br i1 %.not, label %6, label %lean_dec.exit

6:                                                ; preds = %1
  %7 = load i32, ptr %0, align 4, !tbaa !8
  %8 = icmp sgt i32 %7, 1
  br i1 %8, label %9, label %11, !prof !11

9:                                                ; preds = %6
  %10 = add nsw i32 %7, -1
  store i32 %10, ptr %0, align 4, !tbaa !8
  br label %lean_dec.exit

11:                                               ; preds = %6
  %.not.i = icmp eq i32 %7, 0
  br i1 %.not.i, label %lean_dec.exit, label %12

12:                                               ; preds = %11
  tail call void @lean_dec_ref_cold(ptr noundef nonnull %0) #9
  br label %lean_dec.exit

lean_dec.exit:                                    ; preds = %12, %11, %9, %1
  %13 = icmp ult i8 %4, 9
  br i1 %13, label %switch.lookup, label %l___private_Lean_Data_Lsp_LanguageFeatures_0__Lean_Lsp_toJsonSemanticTokenModifier____x40_Lean_Data_Lsp_LanguageFeatures___hyg_9298_.exit

switch.lookup:                                    ; preds = %lean_dec.exit
  %14 = and i64 %3, 15
  %switch.gep = getelementptr inbounds nuw [9 x ptr], ptr @switch.table.l___private_Lean_Data_Lsp_LanguageFeatures_0__Lean_Lsp_toJsonSemanticTokenModifier____x40_Lean_Data_Lsp_LanguageFeatures___hyg_9298____boxed, i64 0, i64 %14
  %switch.load = load ptr, ptr %switch.gep, align 8
  br label %l___private_Lean_Data_Lsp_LanguageFeatures_0__Lean_Lsp_toJsonSemanticTokenModifier____x40_Lean_Data_Lsp_LanguageFeatures___hyg_9298_.exit

l___private_Lean_Data_Lsp_LanguageFeatures_0__Lean_Lsp_toJsonSemanticTokenModifier____x40_Lean_Data_Lsp_LanguageFeatures___hyg_9298_.exit: ; preds = %lean_dec.exit, %switch.lookup
  %.0.in.i = phi ptr [ %switch.load, %switch.lookup ], [ @l___private_Lean_Data_Lsp_LanguageFeatures_0__Lean_Lsp_toJsonSemanticTokenModifier____x40_Lean_Data_Lsp_LanguageFeatures___hyg_9298____closed__19, %lean_dec.exit ]
  %.0.i = load ptr, ptr %.0.in.i, align 8, !tbaa !4
  ret ptr %.0.i
}